; ModuleID = '43/1069.c'
source_filename = "43/1069.c"
target datalayout = "e-m:e-p270:32:32-p271:32:32-p272:64:64-i64:64-f80:128-n8:16:32:64-S128"
target triple = "x86_64-pc-linux-gnu"

@.str = private unnamed_addr constant [3 x i8] c"%d\00", align 1
@.str.1 = private unnamed_addr constant [7 x i8] c"%d %d\0A\00", align 1

; Function Attrs: noinline nounwind uwtable
define dso_local i32 @main() #0 {
  %1 = alloca i32, align 4
  %2 = alloca [2000 x i32], align 16
  %3 = alloca i32, align 4
  %4 = alloca i32, align 4
  %5 = alloca i32, align 4
  %6 = alloca i32, align 4
  %7 = alloca i32, align 4
  %8 = alloca i32, align 4
  store i32 0, i32* %1, align 4
  store i32 0, i32* %7, align 4
  store i32 0, i32* %3, align 4
  br label %9

9:                                                ; preds = %16, %0
  %10 = load i32, i32* %3, align 4
  %11 = icmp sle i32 %10, 1999
  br i1 %11, label %12, label %19

12:                                               ; preds = %9
  %13 = load i32, i32* %3, align 4
  %14 = sext i32 %13 to i64
  %15 = getelementptr inbounds [2000 x i32], [2000 x i32]* %2, i64 0, i64 %14
  store i32 0, i32* %15, align 4
  br label %16

16:                                               ; preds = %12
  %17 = load i32, i32* %3, align 4
  %18 = add nsw i32 %17, 1
  store i32 %18, i32* %3, align 4
  br label %9

19:                                               ; preds = %9
  store i32 2, i32* %3, align 4
  br label %20

20:                                               ; preds = %52, %19
  %21 = load i32, i32* %3, align 4
  %22 = icmp sle i32 %21, 10000
  br i1 %22, label %23, label %55

23:                                               ; preds = %20
  store i32 0, i32* %5, align 4
  store i32 2, i32* %4, align 4
  br label %24

24:                                               ; preds = %38, %23
  %25 = load i32, i32* %4, align 4
  %26 = sitofp i32 %25 to double
  %27 = load i32, i32* %3, align 4
  %28 = sitofp i32 %27 to double
  %29 = call double @sqrt(double %28) #3
  %30 = fcmp ole double %26, %29
  br i1 %30, label %31, label %41

31:                                               ; preds = %24
  %32 = load i32, i32* %3, align 4
  %33 = load i32, i32* %4, align 4
  %34 = srem i32 %32, %33
  %35 = icmp eq i32 %34, 0
  br i1 %35, label %36, label %37

36:                                               ; preds = %31
  store i32 1, i32* %5, align 4
  br label %41

37:                                               ; preds = %31
  br label %38

38:                                               ; preds = %37
  %39 = load i32, i32* %4, align 4
  %40 = add nsw i32 %39, 1
  store i32 %40, i32* %4, align 4
  br label %24

41:                                               ; preds = %36, %24
  %42 = load i32, i32* %5, align 4
  %43 = icmp eq i32 %42, 0
  br i1 %43, label %44, label %51

44:                                               ; preds = %41
  %45 = load i32, i32* %3, align 4
  %46 = load i32, i32* %7, align 4
  %47 = sext i32 %46 to i64
  %48 = getelementptr inbounds [2000 x i32], [2000 x i32]* %2, i64 0, i64 %47
  store i32 %45, i32* %48, align 4
  %49 = load i32, i32* %7, align 4
  %50 = add nsw i32 %49, 1
  store i32 %50, i32* %7, align 4
  br label %51

51:                                               ; preds = %44, %41
  br label %52

52:                                               ; preds = %51
  %53 = load i32, i32* %3, align 4
  %54 = add nsw i32 %53, 1
  store i32 %54, i32* %3, align 4
  br label %20

55:                                               ; preds = %20
  %56 = call i32 (i8*, ...) @__isoc99_scanf(i8* getelementptr inbounds ([3 x i8], [3 x i8]* @.str, i64 0, i64 0), i32* %8)
  store i32 1, i32* %3, align 4
  br label %57

57:                                               ; preds = %98, %55
  %58 = load i32, i32* %3, align 4
  %59 = sext i32 %58 to i64
  %60 = getelementptr inbounds [2000 x i32], [2000 x i32]* %2, i64 0, i64 %59
  %61 = load i32, i32* %60, align 4
  %62 = icmp ne i32 %61, 0
  br i1 %62, label %63, label %101

63:                                               ; preds = %57
  %64 = load i32, i32* %3, align 4
  store i32 %64, i32* %4, align 4
  br label %65

65:                                               ; preds = %94, %63
  %66 = load i32, i32* %4, align 4
  %67 = sext i32 %66 to i64
  %68 = getelementptr inbounds [2000 x i32], [2000 x i32]* %2, i64 0, i64 %67
  %69 = load i32, i32* %68, align 4
  %70 = icmp ne i32 %69, 0
  br i1 %70, label %71, label %97

71:                                               ; preds = %65
  %72 = load i32, i32* %3, align 4
  %73 = sext i32 %72 to i64
  %74 = getelementptr inbounds [2000 x i32], [2000 x i32]* %2, i64 0, i64 %73
  %75 = load i32, i32* %74, align 4
  %76 = load i32, i32* %4, align 4
  %77 = sext i32 %76 to i64
  %78 = getelementptr inbounds [2000 x i32], [2000 x i32]* %2, i64 0, i64 %77
  %79 = load i32, i32* %78, align 4
  %80 = add nsw i32 %75, %79
  %81 = load i32, i32* %8, align 4
  %82 = icmp eq i32 %80, %81
  br i1 %82, label %83, label %93

83:                                               ; preds = %71
  %84 = load i32, i32* %3, align 4
  %85 = sext i32 %84 to i64
  %86 = getelementptr inbounds [2000 x i32], [2000 x i32]* %2, i64 0, i64 %85
  %87 = load i32, i32* %86, align 4
  %88 = load i32, i32* %4, align 4
  %89 = sext i32 %88 to i64
  %90 = getelementptr inbounds [2000 x i32], [2000 x i32]* %2, i64 0, i64 %89
  %91 = load i32, i32* %90, align 4
  %92 = call i32 (i8*, ...) @printf(i8* getelementptr inbounds ([7 x i8], [7 x i8]* @.str.1, i64 0, i64 0), i32 %87, i32 %91)
  br label %93

93:                                               ; preds = %83, %71
  br label %94

94:                                               ; preds = %93
  %95 = load i32, i32* %4, align 4
  %96 = add nsw i32 %95, 1
  store i32 %96, i32* %4, align 4
  br label %65

97:                                               ; preds = %65
  br label %98

98:                                               ; preds = %97
  %99 = load i32, i32* %3, align 4
  %100 = add nsw i32 %99, 1
  store i32 %100, i32* %3, align 4
  br label %57

101:                                              ; preds = %57
  ret i32 0
}

; Function Attrs: nounwind
declare dso_local double @sqrt(double) #1

declare dso_local i32 @__isoc99_scanf(i8*, ...) #2

declare dso_local i32 @printf(i8*, ...) #2


!llvm.module.flags = !{!0}
!llvm.ident = !{!1}

!0 = !{i32 1, !"wchar_size", i32 4}
!1 = !{!"clang version 10.0.0-4ubuntu1 "}
